; Function Attrs: mustprogress uwtable
define void @_ZN32pxrInternal_v0_24__pxrReserved__42UsdImagingNiPrototypePropagatingSceneIndex4_NewERKNS_7TfTokenERKSt10shared_ptrINS_21HdContainerDataSourceEERKS4_INS0_16_SceneIndexCacheEE(ptr dead_on_unwind noalias nocapture writable writeonly sret(%"class.pxrInternal_v0_24__pxrReserved__::TfRefPtr") align 8 %0, ptr noundef nonnull align 8 dereferenceable(8) %1, ptr noundef nonnull align 8 dereferenceable(16) %2, ptr noundef nonnull align 8 dereferenceable(16) %3) local_unnamed_addr #0 align 2 personality ptr @__gxx_personality_v0 {
  %5 = tail call noalias noundef nonnull dereferenceable(272) ptr @_Znwm(i64 noundef 272) #18
  invoke void @_ZN32pxrInternal_v0_24__pxrReserved__42UsdImagingNiPrototypePropagatingSceneIndexC1ERKNS_7TfTokenERKSt10shared_ptrINS_21HdContainerDataSourceEERKS4_INS0_16_SceneIndexCacheEE(ptr noundef nonnull align 8 dereferenceable(272) %5, ptr noundef nonnull align 8 dereferenceable(8) %1, ptr noundef nonnull align 8 dereferenceable(16) %2, ptr noundef nonnull align 8 dereferenceable(16) %3)
          to label %6 unwind label %7

6:                                                ; preds = %4
  store ptr %5, ptr %0, align 8, !alias.scope !13
  ret void

7:                                                ; preds = %4
  %8 = landingpad { ptr, i32 }
          cleanup
  tail call void @_ZdlPvm(ptr noundef nonnull %5, i64 noundef 272) #19
  resume { ptr, i32 } %8
}